(i__main__
customer
p0
(dp1
S'age'
p2
I18
sS'sex'
p3
S'female'
p4
sS'id'
p5
S'1454614087.7'
p6
sS'name'
p7
S'Amneet Kaur'
p8
sb.(i__main__
customer
p0
(dp1
S'age'
p2
I18
sS'sex'
p3
S'female'
p4
sS'id'
p5
S'1454616054.81'
p6
sS'name'
p7
S'Anshima'
p8
sb.(i__main__
customer
p0
(dp1
S'age'
p2
I18
sS'sex'
p3
S'male'
p4
sS'id'
p5
S'1454616096.51'
p6
sS'name'
p7
S'Aditya'
p8
sb.