(i__main__
academics
p0
(dp1
S'grade'
p2
S'I'
p3
sS'bname'
p4
S'Little Stars'
p5
sS'bid'
p6
I1
sS'price'
p7
I250
sS'qty'
p8
I25
sb.(i__main__
academics
p0
(dp1
S'grade'
p2
S'I'
p3
sS'bname'
p4
S'Grammar And Composition'
p5
sS'bid'
p6
I2
sS'price'
p7
I200
sS'qty'
p8
I15
sb.(i__main__
academics
p0
(dp1
S'grade'
p2
S'I'
p3
sS'bname'
p4
S'Fun Maths'
p5
sS'bid'
p6
I3
sS'price'
p7
I200
sS'qty'
p8
I30
sb.(i__main__
academics
p0
(dp1
S'grade'
p2
S'II'
p3
sS'bname'
p4
S'Modern English'
p5
sS'bid'
p6
I4
sS'price'
p7
I170
sS'qty'
p8
I22
sb.(i__main__
academics
p0
(dp1
S'grade'
p2
S'II'
p3
sS'bname'
p4
S'Learning Computers'
p5
sS'bid'
p6
I5
sS'price'
p7
I130
sS'qty'
p8
I20
sb.(i__main__
academics
p0
(dp1
S'grade'
p2
S'II'
p3
sS'bname'
p4
S'Fun With Maths'
p5
sS'bid'
p6
I6
sS'price'
p7
I180
sS'qty'
p8
I22
sb.(i__main__
academics
p0
(dp1
S'grade'
p2
S'III'
p3
sS'bname'
p4
S'IMO Workbook'
p5
sS'bid'
p6
I7
sS'price'
p7
I200
sS'qty'
p8
I25
sb.(i__main__
academics
p0
(dp1
S'grade'
p2
S'III'
p3
sS'bname'
p4
S'Looking Around - Environmental Studies'
p5
sS'bid'
p6
I8
sS'price'
p7
I100
sS'qty'
p8
I15
sb.(i__main__
academics
p0
(dp1
S'grade'
p2
S'III'
p3
sS'bname'
p4
S'Progress in Mathematics'
p5
sS'bid'
p6
I9
sS'price'
p7
I270
sS'qty'
p8
I20
sb.(i__main__
academics
p0
(dp1
S'grade'
p2
S'IV'
p3
sS'bname'
p4
S'IMO Workbook'
p5
sS'bid'
p6
I10
sS'price'
p7
I20
sS'qty'
p8
I20
sb.(i__main__
academics
p0
(dp1
S'grade'
p2
S'IV'
p3
sS'bname'
p4
S'English Grammar'
p5
sS'bid'
p6
I11
sS'price'
p7
I230
sS'qty'
p8
I13
sb.(i__main__
academics
p0
(dp1
S'grade'
p2
S'IV'
p3
sS'bname'
p4
S'MTG Maths Reasoning'
p5
sS'bid'
p6
I12
sS'price'
p7
I250
sS'qty'
p8
I24
sb.(i__main__
academics
p0
(dp1
S'grade'
p2
S'V'
p3
sS'bname'
p4
S'IMO '
p5
sS'bid'
p6
I13
sS'price'
p7
I200
sS'qty'
p8
I23
sb.(i__main__
academics
p0
(dp1
S'grade'
p2
S'V'
p3
sS'bname'
p4
S'Science Olympiad'
p5
sS'bid'
p6
I14
sS'price'
p7
I230
sS'qty'
p8
I24
sb.(i__main__
academics
p0
(dp1
S'grade'
p2
S'V'
p3
sS'bname'
p4
S'Science Booster'
p5
sS'bid'
p6
I15
sS'price'
p7
I290
sS'qty'
p8
I24
sb.(i__main__
academics
p0
(dp1
S'grade'
p2
S'VI'
p3
sS'bname'
p4
S'Oxford Modern English'
p5
sS'bid'
p6
I16
sS'price'
p7
I280
sS'qty'
p8
I26
sb.(i__main__
academics
p0
(dp1
S'grade'
p2
S'VI'
p3
sS'bname'
p4
S'Oxford Modern English'
p5
sS'bid'
p6
I17
sS'price'
p7
I290
sS'qty'
p8
I24
sb.(i__main__
academics
p0
(dp1
S'grade'
p2
S'VII'
p3
sS'bname'
p4
S'Social and Political Science'
p5
sS'bid'
p6
I19
sS'price'
p7
I230
sS'qty'
p8
I29
sb.(i__main__
academics
p0
(dp1
S'grade'
p2
S'VII'
p3
sS'bname'
p4
S'Discovering Geography'
p5
sS'bid'
p6
I20
sS'price'
p7
I300
sS'qty'
p8
I18
sb.(i__main__
academics
p0
(dp1
S'grade'
p2
S'VII'
p3
sS'bname'
p4
S'Honeycomb (English)'
p5
sS'bid'
p6
I19
sS'price'
p7
I190
sS'qty'
p8
I28
sb.(i__main__
academics
p0
(dp1
S'grade'
p2
S'VIII'
p3
sS'bname'
p4
S'Hindi Gyan'
p5
sS'bid'
p6
I20
sS'price'
p7
I199
sS'qty'
p8
I30
sb.(i__main__
academics
p0
(dp1
S'grade'
p2
S'VIII'
p3
sS'bname'
p4
S'Target PSA'
p5
sS'bid'
p6
I21
sS'price'
p7
I299
sS'qty'
p8
I29
sb.(i__main__
academics
p0
(dp1
S'grade'
p2
S'VIII'
p3
sS'bname'
p4
S'History And Civics'
p5
sS'bid'
p6
I22
sS'price'
p7
I230
sS'qty'
p8
I30
sb.(i__main__
academics
p0
(dp1
S'grade'
p2
S'IX'
p3
sS'bname'
p4
S'Science Booster'
p5
sS'bid'
p6
I23
sS'price'
p7
I399
sS'qty'
p8
I20
sb.(i__main__
academics
p0
(dp1
S'grade'
p2
S'Ix'
p3
sS'bname'
p4
S'Mathematics NCERT '
p5
sS'bid'
p6
I24
sS'price'
p7
I230
sS'qty'
p8
I19
sb.(i__main__
academics
p0
(dp1
S'grade'
p2
S'IX'
p3
sS'bname'
p4
S'Economic Applications'
p5
sS'bid'
p6
I25
sS'price'
p7
I299
sS'qty'
p8
I20
sb.(i__main__
academics
p0
(dp1
S'grade'
p2
S'X'
p3
sS'bname'
p4
S'Target NTSE'
p5
sS'bid'
p6
I28
sS'price'
p7
I999
sS'qty'
p8
I25
sb.(i__main__
academics
p0
(dp1
S'grade'
p2
S'X'
p3
sS'bname'
p4
S'Mathematics '
p5
sS'bid'
p6
I26
sS'price'
p7
I299
sS'qty'
p8
I12
sb.(i__main__
academics
p0
(dp1
S'grade'
p2
S'X'
p3
sS'bname'
p4
S'Computer Science'
p5
sS'bid'
p6
I27
sS'price'
p7
I280
sS'qty'
p8
I5
sb.(i__main__
academics
p0
(dp1
S'grade'
p2
S'XI'
p3
sS'bname'
p4
S'H.C. Verma'
p5
sS'bid'
p6
I29
sS'price'
p7
I399
sS'qty'
p8
I5
sb.(i__main__
academics
p0
(dp1
S'grade'
p2
S'XI'
p3
sS'bname'
p4
S'Organic Chemistry Class 11'
p5
sS'bid'
p6
I30
sS'price'
p7
I220
sS'qty'
p8
I4
sb.(i__main__
academics
p0
(dp1
S'grade'
p2
S'XI'
p3
sS'bname'
p4
S'Computer Science for class 11'
p5
sS'bid'
p6
I31
sS'price'
p7
I290
sS'qty'
p8
I12
sb.(i__main__
academics
p0
(dp1
S'grade'
p2
S'XII'
p3
sS'bname'
p4
S'Inorganic Chemistry'
p5
sS'bid'
p6
I32
sS'price'
p7
I240
sS'qty'
p8
I8
sb.(i__main__
academics
p0
(dp1
S'grade'
p2
S'XII'
p3
sS'bname'
p4
S'CBSE Board Sample Papers'
p5
sS'bid'
p6
I33
sS'price'
p7
I999
sS'qty'
p8
I11
sb.(i__main__
academics
p0
(dp1
S'grade'
p2
S'XII'
p3
sS'bname'
p4
S'R.S. Aggarwal Mathematics '
p5
sS'bid'
p6
I34
sS'price'
p7
I250
sS'qty'
p8
I10
sb.(i__main__
academics
p0
(dp1
S'grade'
p2
S'XII'
p3
sS'bname'
p4
S'R.D. Sharma'
p5
sS'bid'
p6
I35
sS'price'
p7
I450
sS'qty'
p8
I10
sb.(i__main__
academics
p0
(dp1
S'grade'
p2
S'XII'
p3
sS'bname'
p4
S'XAM IDEA MATHEMATICS'
p5
sS'bid'
p6
I36
sS'price'
p7
I570
sS'qty'
p8
I9
sb.