(i__main__
LitFic
p0
(dp1
S'category'
p2
S'Classics'
p3
sS'author'
p4
S'Sir Arthur Conan Doyle'
p5
sS'bid'
p6
I1
sS'qty'
p7
I15
sS'bname'
p8
S'Sherlock Holmes'
p9
sS'price'
p10
I165
sb.(i__main__
LitFic
p0
(dp1
S'category'
p2
S'Classics'
p3
sS'author'
p4
S'Harper Lee'
p5
sS'bid'
p6
I2
sS'qty'
p7
I22
sS'bname'
p8
S'To Kill A Mockingbird'
p9
sS'price'
p10
I343
sb.(i__main__
LitFic
p0
(dp1
S'category'
p2
S'Classics'
p3
sS'author'
p4
S'Jane Austen'
p5
sS'bid'
p6
I3
sS'qty'
p7
I20
sS'bname'
p8
S'Pride And Prejudice'
p9
sS'price'
p10
I150
sb.(i__main__
LitFic
p0
(dp1
S'category'
p2
S'Classics'
p3
sS'author'
p4
S'Salman Rushdie'
p5
sS'bid'
p6
I4
sS'qty'
p7
I20
sS'bname'
p8
S"Midnight's Children"
p9
sS'price'
p10
I399
sb.(i__main__
LitFic
p0
(dp1
S'category'
p2
S'Classics'
p3
sS'author'
p4
S'William Shakespeare'
p5
sS'bid'
p6
I5
sS'qty'
p7
I30
sS'bname'
p8
S'As You Like It'
p9
sS'price'
p10
I200
sb.(i__main__
LitFic
p0
(dp1
S'category'
p2
S'Romance'
p3
sS'author'
p4
S'Paulo Coelho'
p5
sS'bid'
p6
I6
sS'qty'
p7
I15
sS'bname'
p8
S'Adultery'
p9
sS'price'
p10
I123
sb.(i__main__
LitFic
p0
(dp1
S'category'
p2
S'Romance'
p3
sS'author'
p4
S'Nicholas Sparks'
p5
sS'bid'
p6
I7
sS'qty'
p7
I29
sS'bname'
p8
S'A Walk To Remember'
p9
sS'price'
p10
I225
sb.(i__main__
LitFic
p0
(dp1
S'category'
p2
S'Romance'
p3
sS'author'
p4
S'John Green'
p5
sS'bid'
p6
I8
sS'qty'
p7
I30
sS'bname'
p8
S'The Fault In Our Stars'
p9
sS'price'
p10
I199
sb.(i__main__
LitFic
p0
(dp1
S'category'
p2
S'Romance'
p3
sS'author'
p4
S'Nicholas Sparks'
p5
sS'bid'
p6
I9
sS'qty'
p7
I20
sS'bname'
p8
S'The Notebook'
p9
sS'price'
p10
I255
sb.(i__main__
LitFic
p0
(dp1
S'category'
p2
S'Romance'
p3
sS'author'
p4
S'Chetan Bhagat'
p5
sS'bid'
p6
I10
sS'qty'
p7
I30
sS'bname'
p8
S'Half Girlfriend'
p9
sS'price'
p10
I189
sb.(i__main__
LitFic
p0
(dp1
S'category'
p2
S'Romance'
p3
sS'author'
p4
S'Ravinder Singh'
p5
sS'bid'
p6
I11
sS'qty'
p7
I20
sS'bname'
p8
S'I Too Had A Love Story'
p9
sS'price'
p10
I199
sb.(i__main__
LitFic
p0
(dp1
S'category'
p2
S'Romance'
p3
sS'author'
p4
S'Durjoy Datta'
p5
sS'bid'
p6
I12
sS'qty'
p7
I15
sS'bname'
p8
S'Hold my Hand'
p9
sS'price'
p10
I159
sb.(i__main__
LitFic
p0
(dp1
S'category'
p2
S'Suspense and Thriller'
p3
sS'author'
p4
S'Dan Brown'
p5
sS'bid'
p6
I13
sS'qty'
p7
I30
sS'bname'
p8
S'The Da Vinci Code'
p9
sS'price'
p10
I261
sb.(i__main__
LitFic
p0
(dp1
S'category'
p2
S'Suspense and Thriller'
p3
sS'author'
p4
S'Gillian Flynn'
p5
sS'bid'
p6
I14
sS'qty'
p7
I23
sS'bname'
p8
S'Gone Girl'
p9
sS'price'
p10
I228
sb.(i__main__
LitFic
p0
(dp1
S'category'
p2
S'Suspense and Thriller'
p3
sS'author'
p4
S'Sidney Sheldon'
p5
sS'bid'
p6
I15
sS'qty'
p7
I20
sS'bname'
p8
S'Nothing Lasts Forever'
p9
sS'price'
p10
I182
sb.(i__main__
LitFic
p0
(dp1
S'category'
p2
S'Suspense and Thriller'
p3
sS'author'
p4
S'Jeffrey Archer'
p5
sS'bid'
p6
I16
sS'qty'
p7
I20
sS'bname'
p8
S'Be Careful What You Wish For'
p9
sS'price'
p10
I443
sb.(i__main__
LitFic
p0
(dp1
S'category'
p2
S'Suspense and Thriller'
p3
sS'author'
p4
S'Dan Brown'
p5
sS'bid'
p6
I17
sS'qty'
p7
I20
sS'bname'
p8
S'The Digital Fortress'
p9
sS'price'
p10
I229
sb.(i__main__
LitFic
p0
(dp1
S'category'
p2
S'Suspense and Thriller'
p3
sS'author'
p4
S'Sidney Sheldon'
p5
sS'bid'
p6
I18
sS'qty'
p7
I20
sS'bname'
p8
S'Tell Me Your Dreams'
p9
sS'price'
p10
I299
sb.(i__main__
LitFic
p0
(dp1
S'category'
p2
S'Suspense and Thriller'
p3
sS'author'
p4
S'Dan Brown'
p5
sS'bid'
p6
I19
sS'qty'
p7
I20
sS'bname'
p8
S'The Lost Symbol'
p9
sS'price'
p10
I299
sb.(i__main__
LitFic
p0
(dp1
S'category'
p2
S'Suspense and Thriller'
p3
sS'author'
p4
S'Paula Hawkins'
p5
sS'bid'
p6
I20
sS'qty'
p7
I14
sS'bname'
p8
S'The Girl On The Train'
p9
sS'price'
p10
I214
sb.